target datalayout = "e-m:e-p270:32:32-p271:32:32-p272:64:64-i64:64-i128:128-f80:128-n8:16:32:64-S128"
target triple = "x86_64-pc-linux-gnu"

%"class.net::SettingsFlagsAndId" = type { i8, i32 }
%"class.std::__cxx11::basic_string" = type { %"struct.std::__cxx11::basic_string<char>::_Alloc_hider", i64, %union.anon }
%"struct.std::__cxx11::basic_string<char>::_Alloc_hider" = type { ptr }
%union.anon = type { i64, [8 x i8] }
%"class.std::unique_ptr.42" = type { %"struct.std::__uniq_ptr_data.43" }
%"struct.std::__uniq_ptr_data.43" = type { %"class.std::__uniq_ptr_impl.44" }
%"class.std::__uniq_ptr_impl.44" = type { %"class.std::tuple.45" }
%"class.std::tuple.45" = type { %"struct.std::_Tuple_impl.46" }
%"struct.std::_Tuple_impl.46" = type { %"struct.std::_Head_base.49" }
%"struct.std::_Head_base.49" = type { ptr }
%"class.net::SpdyFramer" = type <{ ptr, i32, i32, i32, [4 x i8], i64, i64, i64, i64, i64, %"class.net::SpdyFramer::CharBuffer", i32, i32, i32, i32, %"struct.net::SpdyFramer::SpdySettingsScratch", %"class.std::unique_ptr.2", %"class.std::unique_ptr.10", %"class.std::unique_ptr.10", %"class.std::unique_ptr.18", %"class.std::unique_ptr.26", ptr, ptr, %"class.std::unique_ptr.34", ptr, %"class.std::__cxx11::basic_string", %"class.std::unique_ptr.42", i32, i8, i8, i8, i8, i8, i8, i8, [5 x i8] }>
%"class.net::SpdyFramer::CharBuffer" = type { %"class.std::unique_ptr", i64, i64 }
%"class.std::unique_ptr" = type { %"struct.std::__uniq_ptr_data" }
%"struct.std::__uniq_ptr_data" = type { %"class.std::__uniq_ptr_impl" }
%"class.std::__uniq_ptr_impl" = type { %"class.std::tuple" }
%"class.std::tuple" = type { %"struct.std::_Tuple_impl" }
%"struct.std::_Tuple_impl" = type { %"struct.std::_Head_base.1" }
%"struct.std::_Head_base.1" = type { ptr }
%"struct.net::SpdyFramer::SpdySettingsScratch" = type <{ %"class.net::SpdyFramer::CharBuffer", i32, [4 x i8] }>
%"class.std::unique_ptr.2" = type { %"struct.std::__uniq_ptr_data.3" }
%"struct.std::__uniq_ptr_data.3" = type { %"class.std::__uniq_ptr_impl.4" }
%"class.std::__uniq_ptr_impl.4" = type { %"class.std::tuple.5" }
%"class.std::tuple.5" = type { %"struct.std::_Tuple_impl.6" }
%"struct.std::_Tuple_impl.6" = type { %"struct.std::_Head_base.9" }
%"struct.std::_Head_base.9" = type { ptr }
%"class.std::unique_ptr.10" = type { %"struct.std::__uniq_ptr_data.11" }
%"struct.std::__uniq_ptr_data.11" = type { %"class.std::__uniq_ptr_impl.12" }
%"class.std::__uniq_ptr_impl.12" = type { %"class.std::tuple.13" }
%"class.std::tuple.13" = type { %"struct.std::_Tuple_impl.14" }
%"struct.std::_Tuple_impl.14" = type { %"struct.std::_Head_base.17" }
%"struct.std::_Head_base.17" = type { ptr }
%"class.std::unique_ptr.18" = type { %"struct.std::__uniq_ptr_data.19" }
%"struct.std::__uniq_ptr_data.19" = type { %"class.std::__uniq_ptr_impl.20" }
%"class.std::__uniq_ptr_impl.20" = type { %"class.std::tuple.21" }
%"class.std::tuple.21" = type { %"struct.std::_Tuple_impl.22" }
%"struct.std::_Tuple_impl.22" = type { %"struct.std::_Head_base.25" }
%"struct.std::_Head_base.25" = type { ptr }
%"class.std::unique_ptr.26" = type { %"struct.std::__uniq_ptr_data.27" }
%"struct.std::__uniq_ptr_data.27" = type { %"class.std::__uniq_ptr_impl.28" }
%"class.std::__uniq_ptr_impl.28" = type { %"class.std::tuple.29" }
%"class.std::tuple.29" = type { %"struct.std::_Tuple_impl.30" }
%"struct.std::_Tuple_impl.30" = type { %"struct.std::_Head_base.33" }
%"struct.std::_Head_base.33" = type { ptr }
%"class.std::unique_ptr.34" = type { %"struct.std::__uniq_ptr_data.35" }
%"struct.std::__uniq_ptr_data.35" = type { %"class.std::__uniq_ptr_impl.36" }
%"class.std::__uniq_ptr_impl.36" = type { %"class.std::tuple.37" }
%"class.std::tuple.37" = type { %"struct.std::_Tuple_impl.38" }
%"struct.std::_Tuple_impl.38" = type { %"struct.std::_Head_base.41" }
%"struct.std::_Head_base.41" = type { ptr }

@_ZN3net18SettingsFlagsAndIdC1Ehj = unnamed_addr alias void (ptr, i8, i32), ptr @_ZN3net18SettingsFlagsAndIdC2Ehj

; Function Attrs: inlinehint mustprogress nounwind uwtable
define linkonce_odr noundef zeroext i16 @_ZN4base8ByteSwapEt(i16 noundef zeroext %0) #6 comdat {
  %2 = alloca i16, align 2
  store i16 %0, ptr %2, align 2, !tbaa !171
  %3 = load i16, ptr %2, align 2, !tbaa !171
  %4 = call i16 @llvm.bswap.i16(i16 %3)
  ret i16 %4
}

; Function Attrs: inlinehint mustprogress nounwind uwtable
define linkonce_odr noundef i32 @_ZN4base8ByteSwapEj(i32 noundef %0) #6 comdat {
  %2 = alloca i32, align 4
  store i32 %0, ptr %2, align 4, !tbaa !7
  %3 = load i32, ptr %2, align 4, !tbaa !7
  %4 = call i32 @llvm.bswap.i32(i32 %3)
  ret i32 %4
}

; Function Attrs: inlinehint mustprogress uwtable
define linkonce_odr noundef zeroext i16 @_ZN4base11NetToHost16Et(i16 noundef zeroext %0) #1 comdat {
  %2 = alloca i16, align 2
  store i16 %0, ptr %2, align 2, !tbaa !171
  %3 = load i16, ptr %2, align 2, !tbaa !171
  %4 = call noundef zeroext i16 @_ZN4base8ByteSwapEt(i16 noundef zeroext %3)
  ret i16 %4
}

; Function Attrs: inlinehint mustprogress uwtable
define linkonce_odr noundef i32 @_ZN4base11NetToHost32Ej(i32 noundef %0) #1 comdat {
  %2 = alloca i32, align 4
  store i32 %0, ptr %2, align 4, !tbaa !7
  %3 = load i32, ptr %2, align 4, !tbaa !7
  %4 = call noundef i32 @_ZN4base8ByteSwapEj(i32 noundef %3)
  ret i32 %4
}

; Function Attrs: mustprogress nounwind uwtable
define linkonce_odr noundef zeroext i8 @_ZNK3net18SettingsFlagsAndId5flagsEv(ptr noundef nonnull align 4 dereferenceable(8) %0) #4 comdat align 2 {
  %2 = alloca ptr, align 8
  store ptr %0, ptr %2, align 8, !tbaa !9
  %3 = load ptr, ptr %2, align 8
  %4 = getelementptr inbounds nuw %"class.net::SettingsFlagsAndId", ptr %3, i32 0, i32 0
  %5 = load i8, ptr %4, align 4, !tbaa !13
  ret i8 %5
}

; Function Attrs: mustprogress nounwind uwtable
define linkonce_odr noundef i32 @_ZNK3net18SettingsFlagsAndId2idEv(ptr noundef nonnull align 4 dereferenceable(8) %0) #4 comdat align 2 {
  %2 = alloca ptr, align 8
  store ptr %0, ptr %2, align 8, !tbaa !9
  %3 = load ptr, ptr %2, align 8
  %4 = getelementptr inbounds nuw %"class.net::SettingsFlagsAndId", ptr %3, i32 0, i32 1
  %5 = load i32, ptr %4, align 4, !tbaa !15
  ret i32 %5
}

; Function Attrs: mustprogress uwtable
define i64 @_ZN3net18SettingsFlagsAndId14FromWireFormatENS_16SpdyMajorVersionEj(i32 noundef %0, i32 noundef %1) #0 align 2 {
  %3 = alloca %"class.net::SettingsFlagsAndId", align 4
  %4 = alloca i32, align 4
  %5 = alloca i32, align 4
  store i32 %0, ptr %4, align 4, !tbaa !3
  store i32 %1, ptr %5, align 4, !tbaa !7
  %6 = load i32, ptr %5, align 4, !tbaa !7
  %7 = call noundef i32 @_ZN4base11NetToHost32Ej(i32 noundef %6)
  %8 = lshr i32 %7, 24
  %9 = trunc i32 %8 to i8
  %10 = load i32, ptr %5, align 4, !tbaa !7
  %11 = call noundef i32 @_ZN4base11NetToHost32Ej(i32 noundef %10)
  %12 = and i32 %11, 16777215
  call void @_ZN3net18SettingsFlagsAndIdC1Ehj(ptr noundef nonnull align 4 dereferenceable(8) %3, i8 noundef zeroext %9, i32 noundef %12)
  %13 = load i64, ptr %3, align 4
  ret i64 %13
}

; Function Attrs: mustprogress uwtable
define noundef zeroext i1 @_ZN3net10SpdyFramer14ProcessSettingEPKc(ptr noundef nonnull align 8 dereferenceable(259) %0, ptr noundef %1) #0 align 2 {
  %3 = alloca i1, align 1
  %4 = alloca ptr, align 8
  %5 = alloca ptr, align 8
  %6 = alloca i32, align 4
  %7 = alloca i32, align 4
  %8 = alloca i8, align 1
  %9 = alloca i32, align 4
  %10 = alloca i32, align 4
  %11 = alloca %"class.net::SettingsFlagsAndId", align 4
  %12 = alloca i32, align 4
  %13 = alloca i8, align 1
  store ptr %0, ptr %4, align 8, !tbaa !30
  store ptr %1, ptr %5, align 8, !tbaa !20
  %14 = load ptr, ptr %4, align 8
  call void @llvm.lifetime.start.p0(i64 4, ptr %6) #18
  call void @llvm.lifetime.start.p0(i64 4, ptr %7) #18
  call void @llvm.lifetime.start.p0(i64 1, ptr %8) #18
  store i8 0, ptr %8, align 1, !tbaa !12
  call void @llvm.lifetime.start.p0(i64 4, ptr %9) #18
  %15 = getelementptr inbounds nuw %"class.net::SpdyFramer", ptr %14, i32 0, i32 27
  %16 = load i32, ptr %15, align 8, !tbaa !98
  %17 = icmp eq i32 %16, 1
  br i1 %17, label %18, label %31

18:                                               ; preds = %2
  call void @llvm.lifetime.start.p0(i64 4, ptr %10) #18
  %19 = load ptr, ptr %5, align 8, !tbaa !20
  %20 = load i32, ptr %19, align 4, !tbaa !7
  store i32 %20, ptr %10, align 4, !tbaa !7
  call void @llvm.lifetime.start.p0(i64 8, ptr %11) #18
  %21 = getelementptr inbounds nuw %"class.net::SpdyFramer", ptr %14, i32 0, i32 27
  %22 = load i32, ptr %21, align 8, !tbaa !98
  %23 = load i32, ptr %10, align 4, !tbaa !7
  %24 = call i64 @_ZN3net18SettingsFlagsAndId14FromWireFormatENS_16SpdyMajorVersionEj(i32 noundef %22, i32 noundef %23)
  store i64 %24, ptr %11, align 4
  %25 = call noundef i32 @_ZNK3net18SettingsFlagsAndId2idEv(ptr noundef nonnull align 4 dereferenceable(8) %11)
  store i32 %25, ptr %6, align 4, !tbaa !7
  %26 = call noundef zeroext i8 @_ZNK3net18SettingsFlagsAndId5flagsEv(ptr noundef nonnull align 4 dereferenceable(8) %11)
  store i8 %26, ptr %8, align 1, !tbaa !12
  %27 = load ptr, ptr %5, align 8, !tbaa !20
  %28 = getelementptr inbounds i8, ptr %27, i64 4
  %29 = load i32, ptr %28, align 4, !tbaa !7
  %30 = call noundef i32 @_ZN4base11NetToHost32Ej(i32 noundef %29)
  store i32 %30, ptr %9, align 4, !tbaa !7
  call void @llvm.lifetime.end.p0(i64 8, ptr %11) #18
  call void @llvm.lifetime.end.p0(i64 4, ptr %10) #18
  br label %40

31:                                               ; preds = %2
  %32 = load ptr, ptr %5, align 8, !tbaa !20
  %33 = load i16, ptr %32, align 2, !tbaa !171
  %34 = call noundef zeroext i16 @_ZN4base11NetToHost16Et(i16 noundef zeroext %33)
  %35 = zext i16 %34 to i32
  store i32 %35, ptr %6, align 4, !tbaa !7
  %36 = load ptr, ptr %5, align 8, !tbaa !20
  %37 = getelementptr inbounds i8, ptr %36, i64 2
  %38 = load i32, ptr %37, align 4, !tbaa !7
  %39 = call noundef i32 @_ZN4base11NetToHost32Ej(i32 noundef %38)
  store i32 %39, ptr %9, align 4, !tbaa !7
  br label %40

40:                                               ; preds = %31, %18
  %41 = getelementptr inbounds nuw %"class.net::SpdyFramer", ptr %14, i32 0, i32 27
  %42 = load i32, ptr %41, align 8, !tbaa !98
  %43 = load i32, ptr %6, align 4, !tbaa !7
  %44 = call noundef zeroext i1 @_ZN3net13SpdyConstants16IsValidSettingIdENS_16SpdyMajorVersionEi(i32 noundef %42, i32 noundef %43)
  br i1 %44, label %51, label %45

45:                                               ; preds = %40
  %46 = getelementptr inbounds nuw %"class.net::SpdyFramer", ptr %14, i32 0, i32 27
  %47 = load i32, ptr %46, align 8, !tbaa !98
  %48 = icmp eq i32 %47, 1
  br i1 %48, label %49, label %50

49:                                               ; preds = %45
  store i1 false, ptr %3, align 1
  store i32 1, ptr %12, align 4
  br label %91

50:                                               ; preds = %45
  store i1 true, ptr %3, align 1
  store i32 1, ptr %12, align 4
  br label %91

51:                                               ; preds = %40
  %52 = getelementptr inbounds nuw %"class.net::SpdyFramer", ptr %14, i32 0, i32 27
  %53 = load i32, ptr %52, align 8, !tbaa !98
  %54 = load i32, ptr %6, align 4, !tbaa !7
  %55 = call noundef i32 @_ZN3net13SpdyConstants14ParseSettingIdENS_16SpdyMajorVersionEi(i32 noundef %53, i32 noundef %54)
  store i32 %55, ptr %7, align 4, !tbaa !243
  %56 = getelementptr inbounds nuw %"class.net::SpdyFramer", ptr %14, i32 0, i32 27
  %57 = load i32, ptr %56, align 8, !tbaa !98
  %58 = icmp eq i32 %57, 1
  br i1 %58, label %59, label %82

59:                                               ; preds = %51
  %60 = load i32, ptr %7, align 4, !tbaa !243
  %61 = getelementptr inbounds nuw %"class.net::SpdyFramer", ptr %14, i32 0, i32 15
  %62 = getelementptr inbounds nuw %"struct.net::SpdyFramer::SpdySettingsScratch", ptr %61, i32 0, i32 1
  %63 = load i32, ptr %62, align 8, !tbaa !245
  %64 = icmp sle i32 %60, %63
  br i1 %64, label %65, label %66

65:                                               ; preds = %59
  store i1 false, ptr %3, align 1
  store i32 1, ptr %12, align 4
  br label %91

66:                                               ; preds = %59
  %67 = load i32, ptr %7, align 4, !tbaa !243
  %68 = getelementptr inbounds nuw %"class.net::SpdyFramer", ptr %14, i32 0, i32 15
  %69 = getelementptr inbounds nuw %"struct.net::SpdyFramer::SpdySettingsScratch", ptr %68, i32 0, i32 1
  store i32 %67, ptr %69, align 8, !tbaa !245
  call void @llvm.lifetime.start.p0(i64 1, ptr %13) #18
  store i8 3, ptr %13, align 1, !tbaa !12
  %70 = load i8, ptr %8, align 1, !tbaa !12
  %71 = zext i8 %70 to i32
  %72 = load i8, ptr %13, align 1, !tbaa !12
  %73 = zext i8 %72 to i32
  %74 = xor i32 %73, -1
  %75 = and i32 %71, %74
  %76 = icmp ne i32 %75, 0
  br i1 %76, label %77, label %78

77:                                               ; preds = %66
  store i1 false, ptr %3, align 1
  store i32 1, ptr %12, align 4
  br label %79

78:                                               ; preds = %66
  store i32 0, ptr %12, align 4
  br label %79

79:                                               ; preds = %78, %77
  call void @llvm.lifetime.end.p0(i64 1, ptr %13) #18
  %80 = load i32, ptr %12, align 4
  switch i32 %80, label %91 [
    i32 0, label %81
  ]

81:                                               ; preds = %79
  br label %82

82:                                               ; preds = %81, %51
  %83 = getelementptr inbounds nuw %"class.net::SpdyFramer", ptr %14, i32 0, i32 21
  %84 = load ptr, ptr %83, align 8, !tbaa !95
  %85 = load i32, ptr %7, align 4, !tbaa !243
  %86 = load i8, ptr %8, align 1, !tbaa !12
  %87 = load i32, ptr %9, align 4, !tbaa !7
  %88 = load ptr, ptr %84, align 8, !tbaa !22
  %89 = getelementptr inbounds ptr, ptr %88, i64 15
  %90 = load ptr, ptr %89, align 8
  call void %90(ptr noundef nonnull align 8 dereferenceable(8) %84, i32 noundef %85, i8 noundef zeroext %86, i32 noundef %87)
  store i1 true, ptr %3, align 1
  store i32 1, ptr %12, align 4
  br label %91

91:                                               ; preds = %82, %79, %65, %50, %49
  call void @llvm.lifetime.end.p0(i64 4, ptr %9) #18
  call void @llvm.lifetime.end.p0(i64 1, ptr %8) #18
  call void @llvm.lifetime.end.p0(i64 4, ptr %7) #18
  call void @llvm.lifetime.end.p0(i64 4, ptr %6) #18
  %92 = load i1, ptr %3, align 1
  ret i1 %92
}