; Function Attrs: mustprogress uwtable
define noundef zeroext i1 @_ZN3net10SpdyFramer14ProcessSettingEPKc(ptr noundef nonnull align 8 captures(none) dereferenceable(259) %0, ptr noundef readonly captures(none) %1) local_unnamed_addr #0 align 2 {
  %3 = alloca %"class.net::SettingsFlagsAndId", align 8
  %4 = getelementptr inbounds nuw i8, ptr %0, i64 248
  %5 = load i32, ptr %4, align 8, !tbaa !82
  %6 = icmp eq i32 %5, 1
  br i1 %6, label %7, label %17

7:                                                ; preds = %2
  %8 = load i32, ptr %1, align 4, !tbaa !118
  call void @llvm.lifetime.start.p0(i64 8, ptr nonnull %3)
  %9 = tail call noundef i32 @llvm.bswap.i32(i32 %8)
  %10 = lshr i32 %9, 24
  %11 = trunc nuw i32 %10 to i8
  %12 = and i32 %9, 16777215
  call void @_ZN3net18SettingsFlagsAndIdC1Ehj(ptr noundef nonnull align 4 dereferenceable(8) %3, i8 noundef zeroext %11, i32 noundef %12)
  %13 = load i64, ptr %3, align 8
  call void @llvm.lifetime.end.p0(i64 8, ptr nonnull %3)
  %.sroa.0.0.extract.trunc = trunc i64 %13 to i8
  %.sroa.422.0.extract.shift = lshr i64 %13, 32
  %.sroa.422.0.extract.trunc = trunc nuw i64 %.sroa.422.0.extract.shift to i32
  %14 = getelementptr inbounds nuw i8, ptr %1, i64 4
  %15 = load i32, ptr %14, align 4, !tbaa !118
  %16 = call noundef i32 @llvm.bswap.i32(i32 %15)
  %.pre = load i32, ptr %4, align 8, !tbaa !82
  br label %24

17:                                               ; preds = %2
  %18 = load i16, ptr %1, align 2, !tbaa !114
  %19 = tail call noundef i16 @llvm.bswap.i16(i16 %18)
  %20 = zext i16 %19 to i32
  %21 = getelementptr inbounds nuw i8, ptr %1, i64 2
  %22 = load i32, ptr %21, align 4, !tbaa !118
  %23 = tail call noundef i32 @llvm.bswap.i32(i32 %22)
  br label %24

24:                                               ; preds = %17, %7
  %25 = phi i32 [ %.pre, %7 ], [ %5, %17 ]
  %.019 = phi i8 [ %.sroa.0.0.extract.trunc, %7 ], [ 0, %17 ]
  %.018 = phi i32 [ %16, %7 ], [ %23, %17 ]
  %.017 = phi i32 [ %.sroa.422.0.extract.trunc, %7 ], [ %20, %17 ]
  %26 = call noundef zeroext i1 @_ZN3net13SpdyConstants16IsValidSettingIdENS_16SpdyMajorVersionEi(i32 noundef %25, i32 noundef %.017)
  %27 = load i32, ptr %4, align 8, !tbaa !82
  br i1 %26, label %30, label %28

28:                                               ; preds = %24
  %29 = icmp ne i32 %27, 1
  br label %44

30:                                               ; preds = %24
  %31 = call noundef i32 @_ZN3net13SpdyConstants14ParseSettingIdENS_16SpdyMajorVersionEi(i32 noundef %27, i32 noundef %.017)
  %32 = load i32, ptr %4, align 8, !tbaa !82
  %33 = icmp eq i32 %32, 1
  br i1 %33, label %34, label %38

34:                                               ; preds = %30
  %35 = getelementptr inbounds nuw i8, ptr %0, i64 128
  %36 = load i32, ptr %35, align 8, !tbaa !212
  %.not = icmp sgt i32 %31, %36
  br i1 %.not, label %37, label %44

37:                                               ; preds = %34
  store i32 %31, ptr %35, align 8, !tbaa !212
  %.not21 = icmp ult i8 %.019, 4
  br i1 %.not21, label %38, label %44

38:                                               ; preds = %37, %30
  %39 = getelementptr inbounds nuw i8, ptr %0, i64 176
  %40 = load ptr, ptr %39, align 8, !tbaa !105
  %41 = load ptr, ptr %40, align 8, !tbaa !9
  %42 = getelementptr inbounds nuw i8, ptr %41, i64 120
  %43 = load ptr, ptr %42, align 8
  call void %43(ptr noundef nonnull align 8 dereferenceable(8) %40, i32 noundef %31, i8 noundef zeroext %.019, i32 noundef %.018)
  br label %44

44:                                               ; preds = %34, %28, %37, %38
  %.0 = phi i1 [ true, %38 ], [ false, %37 ], [ %29, %28 ], [ false, %34 ]
  ret i1 %.0
}